; ModuleID = '28/1846.c'
source_filename = "28/1846.c"
target datalayout = "e-m:e-p270:32:32-p271:32:32-p272:64:64-i64:64-f80:128-n8:16:32:64-S128"
target triple = "x86_64-pc-linux-gnu"

@.str = private unnamed_addr constant [4 x i8] c"%d,\00", align 1
@.str.1 = private unnamed_addr constant [4 x i8] c"%d\0A\00", align 1

; Function Attrs: noinline nounwind uwtable
define dso_local i32 @main() #0 {
  %1 = alloca i32, align 4
  %2 = alloca i32, align 4
  %3 = alloca i32, align 4
  %4 = alloca i32, align 4
  %5 = alloca [320 x i32], align 16
  %6 = alloca [320 x i32], align 16
  %7 = alloca [9999 x i8], align 16
  %8 = alloca [9999 x i8], align 16
  store i32 0, i32* %1, align 4
  store i32 0, i32* %4, align 4
  %9 = bitcast [320 x i32]* %5 to i8*
  call void @llvm.memset.p0i8.i64(i8* align 16 %9, i8 0, i64 1280, i1 false)
  %10 = bitcast [320 x i32]* %6 to i8*
  call void @llvm.memset.p0i8.i64(i8* align 16 %10, i8 0, i64 1280, i1 false)
  %11 = getelementptr inbounds [9999 x i8], [9999 x i8]* %7, i64 0, i64 0
  %12 = call i32 (i8*, ...) bitcast (i32 (...)* @gets to i32 (i8*, ...)*)(i8* %11)
  %13 = getelementptr inbounds [9999 x i8], [9999 x i8]* %7, i64 0, i64 0
  %14 = call i64 @strlen(i8* %13) #4
  %15 = trunc i64 %14 to i32
  store i32 %15, i32* %2, align 4
  store i32 1, i32* %3, align 4
  br label %16

16:                                               ; preds = %30, %0
  %17 = load i32, i32* %3, align 4
  %18 = load i32, i32* %2, align 4
  %19 = add nsw i32 %18, 1
  %20 = icmp slt i32 %17, %19
  br i1 %20, label %21, label %33

21:                                               ; preds = %16
  %22 = load i32, i32* %3, align 4
  %23 = sub nsw i32 %22, 1
  %24 = sext i32 %23 to i64
  %25 = getelementptr inbounds [9999 x i8], [9999 x i8]* %7, i64 0, i64 %24
  %26 = load i8, i8* %25, align 1
  %27 = load i32, i32* %3, align 4
  %28 = sext i32 %27 to i64
  %29 = getelementptr inbounds [9999 x i8], [9999 x i8]* %8, i64 0, i64 %28
  store i8 %26, i8* %29, align 1
  br label %30

30:                                               ; preds = %21
  %31 = load i32, i32* %3, align 4
  %32 = add nsw i32 %31, 1
  store i32 %32, i32* %3, align 4
  br label %16

33:                                               ; preds = %16
  %34 = getelementptr inbounds [9999 x i8], [9999 x i8]* %8, i64 0, i64 0
  store i8 32, i8* %34, align 16
  %35 = load i32, i32* %2, align 4
  %36 = add nsw i32 %35, 1
  %37 = sext i32 %36 to i64
  %38 = getelementptr inbounds [9999 x i8], [9999 x i8]* %8, i64 0, i64 %37
  store i8 32, i8* %38, align 1
  store i32 1, i32* %3, align 4
  br label %39

39:                                               ; preds = %68, %33
  %40 = load i32, i32* %3, align 4
  %41 = load i32, i32* %2, align 4
  %42 = add nsw i32 %41, 1
  %43 = icmp slt i32 %40, %42
  br i1 %43, label %44, label %71

44:                                               ; preds = %39
  %45 = load i32, i32* %3, align 4
  %46 = sext i32 %45 to i64
  %47 = getelementptr inbounds [9999 x i8], [9999 x i8]* %8, i64 0, i64 %46
  %48 = load i8, i8* %47, align 1
  %49 = sext i8 %48 to i32
  %50 = icmp ne i32 %49, 32
  br i1 %50, label %51, label %67

51:                                               ; preds = %44
  %52 = load i32, i32* %3, align 4
  %53 = sub nsw i32 %52, 1
  %54 = sext i32 %53 to i64
  %55 = getelementptr inbounds [9999 x i8], [9999 x i8]* %8, i64 0, i64 %54
  %56 = load i8, i8* %55, align 1
  %57 = sext i8 %56 to i32
  %58 = icmp eq i32 %57, 32
  br i1 %58, label %59, label %67

59:                                               ; preds = %51
  %60 = load i32, i32* %3, align 4
  %61 = sub nsw i32 %60, 1
  %62 = load i32, i32* %4, align 4
  %63 = sext i32 %62 to i64
  %64 = getelementptr inbounds [320 x i32], [320 x i32]* %5, i64 0, i64 %63
  store i32 %61, i32* %64, align 4
  %65 = load i32, i32* %4, align 4
  %66 = add nsw i32 %65, 1
  store i32 %66, i32* %4, align 4
  br label %67

67:                                               ; preds = %59, %51, %44
  br label %68

68:                                               ; preds = %67
  %69 = load i32, i32* %3, align 4
  %70 = add nsw i32 %69, 1
  store i32 %70, i32* %3, align 4
  br label %39

71:                                               ; preds = %39
  store i32 0, i32* %4, align 4
  store i32 1, i32* %3, align 4
  br label %72

72:                                               ; preds = %100, %71
  %73 = load i32, i32* %3, align 4
  %74 = load i32, i32* %2, align 4
  %75 = add nsw i32 %74, 2
  %76 = icmp slt i32 %73, %75
  br i1 %76, label %77, label %103

77:                                               ; preds = %72
  %78 = load i32, i32* %3, align 4
  %79 = sext i32 %78 to i64
  %80 = getelementptr inbounds [9999 x i8], [9999 x i8]* %8, i64 0, i64 %79
  %81 = load i8, i8* %80, align 1
  %82 = sext i8 %81 to i32
  %83 = icmp ne i32 %82, 32
  br i1 %83, label %84, label %99

84:                                               ; preds = %77
  %85 = load i32, i32* %3, align 4
  %86 = add nsw i32 %85, 1
  %87 = sext i32 %86 to i64
  %88 = getelementptr inbounds [9999 x i8], [9999 x i8]* %8, i64 0, i64 %87
  %89 = load i8, i8* %88, align 1
  %90 = sext i8 %89 to i32
  %91 = icmp eq i32 %90, 32
  br i1 %91, label %92, label %99

92:                                               ; preds = %84
  %93 = load i32, i32* %3, align 4
  %94 = load i32, i32* %4, align 4
  %95 = sext i32 %94 to i64
  %96 = getelementptr inbounds [320 x i32], [320 x i32]* %6, i64 0, i64 %95
  store i32 %93, i32* %96, align 4
  %97 = load i32, i32* %4, align 4
  %98 = add nsw i32 %97, 1
  store i32 %98, i32* %4, align 4
  br label %99

99:                                               ; preds = %92, %84, %77
  br label %100

100:                                              ; preds = %99
  %101 = load i32, i32* %3, align 4
  %102 = add nsw i32 %101, 1
  store i32 %102, i32* %3, align 4
  br label %72

103:                                              ; preds = %72
  store i32 0, i32* %3, align 4
  br label %104

104:                                              ; preds = %120, %103
  %105 = load i32, i32* %3, align 4
  %106 = load i32, i32* %4, align 4
  %107 = sub nsw i32 %106, 1
  %108 = icmp slt i32 %105, %107
  br i1 %108, label %109, label %123

109:                                              ; preds = %104
  %110 = load i32, i32* %3, align 4
  %111 = sext i32 %110 to i64
  %112 = getelementptr inbounds [320 x i32], [320 x i32]* %6, i64 0, i64 %111
  %113 = load i32, i32* %112, align 4
  %114 = load i32, i32* %3, align 4
  %115 = sext i32 %114 to i64
  %116 = getelementptr inbounds [320 x i32], [320 x i32]* %5, i64 0, i64 %115
  %117 = load i32, i32* %116, align 4
  %118 = sub nsw i32 %113, %117
  %119 = call i32 (i8*, ...) @printf(i8* getelementptr inbounds ([4 x i8], [4 x i8]* @.str, i64 0, i64 0), i32 %118)
  br label %120

120:                                              ; preds = %109
  %121 = load i32, i32* %3, align 4
  %122 = add nsw i32 %121, 1
  store i32 %122, i32* %3, align 4
  br label %104

123:                                              ; preds = %104
  %124 = load i32, i32* %4, align 4
  %125 = sub nsw i32 %124, 1
  %126 = sext i32 %125 to i64
  %127 = getelementptr inbounds [320 x i32], [320 x i32]* %6, i64 0, i64 %126
  %128 = load i32, i32* %127, align 4
  %129 = load i32, i32* %4, align 4
  %130 = sub nsw i32 %129, 1
  %131 = sext i32 %130 to i64
  %132 = getelementptr inbounds [320 x i32], [320 x i32]* %5, i64 0, i64 %131
  %133 = load i32, i32* %132, align 4
  %134 = sub nsw i32 %128, %133
  %135 = call i32 (i8*, ...) @printf(i8* getelementptr inbounds ([4 x i8], [4 x i8]* @.str.1, i64 0, i64 0), i32 %134)
  ret i32 0
}

; Function Attrs: argmemonly nounwind willreturn
declare void @llvm.memset.p0i8.i64(i8* nocapture writeonly, i8, i64, i1 immarg) #1

declare dso_local i32 @gets(...) #2

; Function Attrs: nounwind readonly
declare dso_local i64 @strlen(i8*) #3

declare dso_local i32 @printf(i8*, ...) #2


!llvm.module.flags = !{!0}
!llvm.ident = !{!1}

!0 = !{i32 1, !"wchar_size", i32 4}
!1 = !{!"clang version 10.0.0-4ubuntu1 "}
